target datalayout = "e-m:e-p270:32:32-p271:32:32-p272:64:64-i64:64-i128:128-f80:128-n8:16:32:64-S128"
target triple = "x86_64-pc-linux-gnu"

; Function Attrs: nounwind uwtable
define i32 @Extra_TruthHash(ptr noundef %0, i32 noundef %1) #0 {
  %3 = alloca ptr, align 8
  %4 = alloca i32, align 4
  %5 = alloca i32, align 4
  %6 = alloca i32, align 4
  store ptr %0, ptr %3, align 8, !tbaa !10
  store i32 %1, ptr %4, align 4, !tbaa !3
  call void @llvm.lifetime.start.p0(i64 4, ptr %5) #5
  call void @llvm.lifetime.start.p0(i64 4, ptr %6) #5
  store i32 0, ptr %6, align 4, !tbaa !3
  store i32 0, ptr %5, align 4, !tbaa !3
  br label %7

7:                                                ; preds = %24, %2
  %8 = load i32, ptr %5, align 4, !tbaa !3
  %9 = load i32, ptr %4, align 4, !tbaa !3
  %10 = icmp slt i32 %8, %9
  br i1 %10, label %11, label %27

11:                                               ; preds = %7
  %12 = load i32, ptr %5, align 4, !tbaa !3
  %13 = sext i32 %12 to i64
  %14 = getelementptr inbounds [1024 x i32], ptr @Extra_TruthHash.HashPrimes, i64 0, i64 %13
  %15 = load i32, ptr %14, align 4, !tbaa !3
  %16 = load ptr, ptr %3, align 8, !tbaa !10
  %17 = load i32, ptr %5, align 4, !tbaa !3
  %18 = sext i32 %17 to i64
  %19 = getelementptr inbounds i32, ptr %16, i64 %18
  %20 = load i32, ptr %19, align 4, !tbaa !3
  %21 = mul i32 %15, %20
  %22 = load i32, ptr %6, align 4, !tbaa !3
  %23 = xor i32 %22, %21
  store i32 %23, ptr %6, align 4, !tbaa !3
  br label %24

24:                                               ; preds = %11
  %25 = load i32, ptr %5, align 4, !tbaa !3
  %26 = add nsw i32 %25, 1
  store i32 %26, ptr %5, align 4, !tbaa !3
  br label %7, !llvm.loop !98

27:                                               ; preds = %7
  %28 = load i32, ptr %6, align 4, !tbaa !3
  call void @llvm.lifetime.end.p0(i64 4, ptr %6) #5
  call void @llvm.lifetime.end.p0(i64 4, ptr %5) #5
  ret i32 %28
}