; Function Attrs: nofree norecurse nosync nounwind memory(argmem: read) uwtable
define i32 @Extra_TruthHash(ptr noundef readonly captures(none) %0, i32 noundef %1) local_unnamed_addr #4 {
  %3 = icmp sgt i32 %1, 0
  br i1 %3, label %.lr.ph.preheader, label %._crit_edge

.lr.ph.preheader:                                 ; preds = %2
  %wide.trip.count = zext nneg i32 %1 to i64
  br label %.lr.ph

.lr.ph:                                           ; preds = %.lr.ph.preheader, %.lr.ph
  %indvars.iv = phi i64 [ 0, %.lr.ph.preheader ], [ %indvars.iv.next, %.lr.ph ]
  %.09 = phi i32 [ 0, %.lr.ph.preheader ], [ %9, %.lr.ph ]
  %4 = getelementptr inbounds nuw [1024 x i32], ptr @Extra_TruthHash.HashPrimes, i64 0, i64 %indvars.iv
  %5 = load i32, ptr %4, align 4, !tbaa !3
  %6 = getelementptr inbounds nuw i32, ptr %0, i64 %indvars.iv
  %7 = load i32, ptr %6, align 4, !tbaa !3
  %8 = mul i32 %7, %5
  %9 = xor i32 %8, %.09
  %indvars.iv.next = add nuw nsw i64 %indvars.iv, 1
  %exitcond.not = icmp eq i64 %indvars.iv.next, %wide.trip.count
  br i1 %exitcond.not, label %._crit_edge, label %.lr.ph, !llvm.loop !94

._crit_edge:                                      ; preds = %.lr.ph, %2
  %.0.lcssa = phi i32 [ 0, %2 ], [ %9, %.lr.ph ]
  ret i32 %.0.lcssa
}